; Function Attrs: mustprogress uwtable
define dso_local void @_ZN24btMultiBodyDynamicsWorld28setMultiBodyConstraintSolverEP27btMultiBodyConstraintSolver(ptr noundef nonnull align 8 dereferenceable(848) initializes((608, 616)) %0, ptr noundef %1) unnamed_addr #0 align 2 {
  %3 = getelementptr inbounds nuw i8, ptr %0, i64 608
  store ptr %1, ptr %3, align 8, !tbaa !159
  %4 = getelementptr inbounds nuw i8, ptr %0, i64 616
  %5 = load ptr, ptr %4, align 8, !tbaa !153
  %6 = getelementptr inbounds nuw i8, ptr %5, i64 16
  store ptr %1, ptr %6, align 8, !tbaa !176
  tail call void @_ZN23btDiscreteDynamicsWorld19setConstraintSolverEP18btConstraintSolver(ptr noundef nonnull align 8 dereferenceable(508) %0, ptr noundef %1)
  ret void
}